target datalayout = "e-m:e-p270:32:32-p271:32:32-p272:64:64-i64:64-i128:128-f80:128-n8:16:32:64-S128"
target triple = "x86_64-unknown-linux-gnu"

%"class.QuantLib::BivariateCumulativeNormalDistributionDr78" = type { double, double }

; Function Attrs: mustprogress uwtable
define noundef double @_ZNK8QuantLib38AnalyticPartialTimeBarrierOptionEngine1MEddd(ptr noundef nonnull align 8 dereferenceable(384) %this, double noundef %a, double noundef %b, double noundef %rho) #2 align 2 {
entry:
  %this.addr = alloca ptr, align 8
  %a.addr = alloca double, align 8
  %b.addr = alloca double, align 8
  %rho.addr = alloca double, align 8
  %CmlNormDist = alloca %"class.QuantLib::BivariateCumulativeNormalDistributionDr78", align 8
  store ptr %this, ptr %this.addr, align 8, !tbaa !3
  store double %a, ptr %a.addr, align 8, !tbaa !27
  store double %b, ptr %b.addr, align 8, !tbaa !27
  store double %rho, ptr %rho.addr, align 8, !tbaa !27
  call void @llvm.lifetime.start.p0(i64 16, ptr %CmlNormDist) #15
  %0 = load double, ptr %rho.addr, align 8, !tbaa !27
  call void @_ZN8QuantLib41BivariateCumulativeNormalDistributionDr78C1Ed(ptr noundef nonnull align 8 dereferenceable(16) %CmlNormDist, double noundef %0)
  %1 = load double, ptr %a.addr, align 8, !tbaa !27
  %2 = load double, ptr %b.addr, align 8, !tbaa !27
  %call = call noundef double @_ZNK8QuantLib41BivariateCumulativeNormalDistributionDr78clEdd(ptr noundef nonnull align 8 dereferenceable(16) %CmlNormDist, double noundef %1, double noundef %2)
  call void @llvm.lifetime.end.p0(i64 16, ptr %CmlNormDist) #15
  ret double %call
}