; Function Attrs: mustprogress uwtable
define noundef double @_ZNK8QuantLib38AnalyticPartialTimeBarrierOptionEngine1MEddd(ptr nocapture noundef nonnull readnone align 8 dereferenceable(384) %this, double noundef %a, double noundef %b, double noundef %rho) local_unnamed_addr #9 align 2 {
entry:
  %CmlNormDist = alloca %"class.QuantLib::BivariateCumulativeNormalDistributionDr78", align 8
  call void @llvm.lifetime.start.p0(i64 16, ptr nonnull %CmlNormDist) #30
  call void @_ZN8QuantLib41BivariateCumulativeNormalDistributionDr78C1Ed(ptr noundef nonnull align 8 dereferenceable(16) %CmlNormDist, double noundef %rho)
  %call = call noundef double @_ZNK8QuantLib41BivariateCumulativeNormalDistributionDr78clEdd(ptr noundef nonnull align 8 dereferenceable(16) %CmlNormDist, double noundef %a, double noundef %b)
  call void @llvm.lifetime.end.p0(i64 16, ptr nonnull %CmlNormDist) #30
  ret double %call
}